; ModuleID = '57/3117.c'
source_filename = "57/3117.c"
target datalayout = "e-m:e-p270:32:32-p271:32:32-p272:64:64-i64:64-f80:128-n8:16:32:64-S128"
target triple = "x86_64-pc-linux-gnu"

@.str = private unnamed_addr constant [3 x i8] c"%d\00", align 1
@.str.1 = private unnamed_addr constant [3 x i8] c"%s\00", align 1
@.str.2 = private unnamed_addr constant [4 x i8] c"%s\0A\00", align 1

; Function Attrs: noinline nounwind uwtable
define dso_local void @main() #0 {
  %1 = alloca [51 x [10 x i8]], align 16
  %2 = alloca i32, align 4
  %3 = alloca i32, align 4
  %4 = alloca i32, align 4
  %5 = call i32 (i8*, ...) @__isoc99_scanf(i8* getelementptr inbounds ([3 x i8], [3 x i8]* @.str, i64 0, i64 0), i32* %2)
  store i32 0, i32* %3, align 4
  br label %6

6:                                                ; preds = %66, %0
  %7 = load i32, i32* %3, align 4
  %8 = load i32, i32* %2, align 4
  %9 = icmp slt i32 %7, %8
  br i1 %9, label %10, label %69

10:                                               ; preds = %6
  %11 = load i32, i32* %3, align 4
  %12 = sext i32 %11 to i64
  %13 = getelementptr inbounds [51 x [10 x i8]], [51 x [10 x i8]]* %1, i64 0, i64 %12
  %14 = getelementptr inbounds [10 x i8], [10 x i8]* %13, i64 0, i64 0
  %15 = call i32 (i8*, ...) @__isoc99_scanf(i8* getelementptr inbounds ([3 x i8], [3 x i8]* @.str.1, i64 0, i64 0), i8* %14)
  %16 = load i32, i32* %3, align 4
  %17 = sext i32 %16 to i64
  %18 = getelementptr inbounds [51 x [10 x i8]], [51 x [10 x i8]]* %1, i64 0, i64 %17
  %19 = load i32, i32* %3, align 4
  %20 = sext i32 %19 to i64
  %21 = getelementptr inbounds [51 x [10 x i8]], [51 x [10 x i8]]* %1, i64 0, i64 %20
  %22 = getelementptr inbounds [10 x i8], [10 x i8]* %21, i64 0, i64 0
  %23 = call i64 @strlen(i8* %22) #3
  %24 = sub i64 %23, 1
  %25 = getelementptr inbounds [10 x i8], [10 x i8]* %18, i64 0, i64 %24
  %26 = load i8, i8* %25, align 1
  %27 = sext i8 %26 to i32
  %28 = icmp eq i32 %27, 121
  br i1 %28, label %43, label %29

29:                                               ; preds = %10
  %30 = load i32, i32* %3, align 4
  %31 = sext i32 %30 to i64
  %32 = getelementptr inbounds [51 x [10 x i8]], [51 x [10 x i8]]* %1, i64 0, i64 %31
  %33 = load i32, i32* %3, align 4
  %34 = sext i32 %33 to i64
  %35 = getelementptr inbounds [51 x [10 x i8]], [51 x [10 x i8]]* %1, i64 0, i64 %34
  %36 = getelementptr inbounds [10 x i8], [10 x i8]* %35, i64 0, i64 0
  %37 = call i64 @strlen(i8* %36) #3
  %38 = sub i64 %37, 1
  %39 = getelementptr inbounds [10 x i8], [10 x i8]* %32, i64 0, i64 %38
  %40 = load i8, i8* %39, align 1
  %41 = sext i8 %40 to i32
  %42 = icmp eq i32 %41, 114
  br i1 %42, label %43, label %54

43:                                               ; preds = %29, %10
  %44 = load i32, i32* %3, align 4
  %45 = sext i32 %44 to i64
  %46 = getelementptr inbounds [51 x [10 x i8]], [51 x [10 x i8]]* %1, i64 0, i64 %45
  %47 = load i32, i32* %3, align 4
  %48 = sext i32 %47 to i64
  %49 = getelementptr inbounds [51 x [10 x i8]], [51 x [10 x i8]]* %1, i64 0, i64 %48
  %50 = getelementptr inbounds [10 x i8], [10 x i8]* %49, i64 0, i64 0
  %51 = call i64 @strlen(i8* %50) #3
  %52 = sub i64 %51, 2
  %53 = getelementptr inbounds [10 x i8], [10 x i8]* %46, i64 0, i64 %52
  store i8 0, i8* %53, align 1
  br label %65

54:                                               ; preds = %29
  %55 = load i32, i32* %3, align 4
  %56 = sext i32 %55 to i64
  %57 = getelementptr inbounds [51 x [10 x i8]], [51 x [10 x i8]]* %1, i64 0, i64 %56
  %58 = load i32, i32* %3, align 4
  %59 = sext i32 %58 to i64
  %60 = getelementptr inbounds [51 x [10 x i8]], [51 x [10 x i8]]* %1, i64 0, i64 %59
  %61 = getelementptr inbounds [10 x i8], [10 x i8]* %60, i64 0, i64 0
  %62 = call i64 @strlen(i8* %61) #3
  %63 = sub i64 %62, 3
  %64 = getelementptr inbounds [10 x i8], [10 x i8]* %57, i64 0, i64 %63
  store i8 0, i8* %64, align 1
  br label %65

65:                                               ; preds = %54, %43
  br label %66

66:                                               ; preds = %65
  %67 = load i32, i32* %3, align 4
  %68 = add nsw i32 %67, 1
  store i32 %68, i32* %3, align 4
  br label %6

69:                                               ; preds = %6
  store i32 0, i32* %3, align 4
  br label %70

70:                                               ; preds = %80, %69
  %71 = load i32, i32* %3, align 4
  %72 = load i32, i32* %2, align 4
  %73 = icmp slt i32 %71, %72
  br i1 %73, label %74, label %83

74:                                               ; preds = %70
  %75 = load i32, i32* %3, align 4
  %76 = sext i32 %75 to i64
  %77 = getelementptr inbounds [51 x [10 x i8]], [51 x [10 x i8]]* %1, i64 0, i64 %76
  %78 = getelementptr inbounds [10 x i8], [10 x i8]* %77, i64 0, i64 0
  %79 = call i32 (i8*, ...) @printf(i8* getelementptr inbounds ([4 x i8], [4 x i8]* @.str.2, i64 0, i64 0), i8* %78)
  br label %80

80:                                               ; preds = %74
  %81 = load i32, i32* %3, align 4
  %82 = add nsw i32 %81, 1
  store i32 %82, i32* %3, align 4
  br label %70

83:                                               ; preds = %70
  ret void
}

declare dso_local i32 @__isoc99_scanf(i8*, ...) #1

; Function Attrs: nounwind readonly
declare dso_local i64 @strlen(i8*) #2

declare dso_local i32 @printf(i8*, ...) #1


!llvm.module.flags = !{!0}
!llvm.ident = !{!1}

!0 = !{i32 1, !"wchar_size", i32 4}
!1 = !{!"clang version 10.0.0-4ubuntu1 "}
